; Function Attrs: mustprogress uwtable
define void @_ZNK3gmx17HelpWriterContext14writeTextBlockERKNSt7__cxx1112basic_stringIcSt11char_traitsIcESaIcEEE(ptr nocapture noundef nonnull readonly align 8 dereferenceable(8) %0, ptr noundef nonnull align 8 dereferenceable(32) %1) local_unnamed_addr #0 align 2 personality ptr @__gxx_personality_v0 {
  %3 = alloca %"class.gmx::(anonymous namespace)::WrapperToString", align 8
  %4 = alloca %"class.gmx::TextLineWrapperSettings", align 4
  %5 = alloca %"class.std::__cxx11::basic_string", align 8
  call void @_ZN3gmx23TextLineWrapperSettingsC1Ev(ptr noundef nonnull align 4 dereferenceable(14) %4)
  %6 = load ptr, ptr %0, align 8
  %7 = load ptr, ptr %6, align 8
  %8 = getelementptr inbounds i8, ptr %7, i64 8
  %9 = load i32, ptr %8, align 8
  %10 = icmp eq i32 %9, 0
  br i1 %10, label %11, label %12

11:                                               ; preds = %2
  store i32 78, ptr %4, align 4
  %.pre = load ptr, ptr %6, align 8
  br label %12

12:                                               ; preds = %11, %2
  %13 = phi ptr [ %.pre, %11 ], [ %7, %2 ]
  %14 = load ptr, ptr %13, align 8
  call void @llvm.lifetime.start.p0(i64 56, ptr nonnull %3)
  store ptr getelementptr inbounds inrange(-16, 32) ({ [6 x ptr] }, ptr @_ZTVN3gmx12_GLOBAL__N_115WrapperToStringE, i64 0, i32 0, i64 2), ptr %3, align 8, !noalias !44
  %15 = getelementptr inbounds i8, ptr %3, i64 8
  call void @llvm.memcpy.p0.p0.i64(ptr noundef nonnull align 8 dereferenceable(16) %15, ptr noundef nonnull align 4 dereferenceable(16) %4, i64 16, i1 false), !noalias !44
  %16 = getelementptr inbounds i8, ptr %3, i64 24
  call void @_ZNSt7__cxx1112basic_stringIcSt11char_traitsIcESaIcEEC1Ev(ptr noundef nonnull align 8 dereferenceable(32) %16) #17, !noalias !44
  %17 = load ptr, ptr %0, align 8, !noalias !44
  invoke fastcc void @_ZNK3gmx17HelpWriterContext4Impl13processMarkupERKNSt7__cxx1112basic_stringIcSt11char_traitsIcESaIcEEEPNS_12_GLOBAL__N_18IWrapperE(ptr noundef nonnull align 8 dereferenceable(44) %17, ptr noundef nonnull align 8 dereferenceable(32) %1, ptr noundef nonnull %3)
          to label %18 unwind label %19, !noalias !44

18:                                               ; preds = %12
  invoke void @_ZNSt7__cxx1112basic_stringIcSt11char_traitsIcESaIcEEC1ERKS4_(ptr noundef nonnull align 8 dereferenceable(32) %5, ptr noundef nonnull align 8 dereferenceable(32) %16)
          to label %_ZNK3gmx17HelpWriterContext31substituteMarkupAndWrapToStringERKNS_23TextLineWrapperSettingsERKNSt7__cxx1112basic_stringIcSt11char_traitsIcESaIcEEE.exit unwind label %19

common.resume:                                    ; preds = %22, %19
  %.sink = phi ptr [ %5, %22 ], [ %16, %19 ]
  %common.resume.op = phi { ptr, i32 } [ %23, %22 ], [ %20, %19 ]
  call void @_ZNSt7__cxx1112basic_stringIcSt11char_traitsIcESaIcEED1Ev(ptr noundef nonnull align 8 dereferenceable(32) %.sink) #17
  resume { ptr, i32 } %common.resume.op

19:                                               ; preds = %18, %12
  %20 = landingpad { ptr, i32 }
          cleanup
  store ptr getelementptr inbounds inrange(-16, 32) ({ [6 x ptr] }, ptr @_ZTVN3gmx12_GLOBAL__N_115WrapperToStringE, i64 0, i32 0, i64 2), ptr %3, align 8, !noalias !44
  br label %common.resume

_ZNK3gmx17HelpWriterContext31substituteMarkupAndWrapToStringERKNS_23TextLineWrapperSettingsERKNSt7__cxx1112basic_stringIcSt11char_traitsIcESaIcEEE.exit: ; preds = %18
  store ptr getelementptr inbounds inrange(-16, 32) ({ [6 x ptr] }, ptr @_ZTVN3gmx12_GLOBAL__N_115WrapperToStringE, i64 0, i32 0, i64 2), ptr %3, align 8, !noalias !44
  call void @_ZNSt7__cxx1112basic_stringIcSt11char_traitsIcESaIcEED1Ev(ptr noundef nonnull align 8 dereferenceable(32) %16) #17
  call void @llvm.lifetime.end.p0(i64 56, ptr nonnull %3)
  invoke void @_ZN3gmx10TextWriter9writeLineERKNSt7__cxx1112basic_stringIcSt11char_traitsIcESaIcEEE(ptr noundef nonnull align 8 dereferenceable(8) %14, ptr noundef nonnull align 8 dereferenceable(32) %5)
          to label %21 unwind label %22

21:                                               ; preds = %_ZNK3gmx17HelpWriterContext31substituteMarkupAndWrapToStringERKNS_23TextLineWrapperSettingsERKNSt7__cxx1112basic_stringIcSt11char_traitsIcESaIcEEE.exit
  call void @_ZNSt7__cxx1112basic_stringIcSt11char_traitsIcESaIcEED1Ev(ptr noundef nonnull align 8 dereferenceable(32) %5) #17
  ret void

22:                                               ; preds = %_ZNK3gmx17HelpWriterContext31substituteMarkupAndWrapToStringERKNS_23TextLineWrapperSettingsERKNSt7__cxx1112basic_stringIcSt11char_traitsIcESaIcEEE.exit
  %23 = landingpad { ptr, i32 }
          cleanup
  br label %common.resume
}